; Function Attrs: mustprogress nofree norecurse nosync nounwind willreturn memory(argmem: read) uwtable
define range(i32 0, 2) i32 @BrotliDecoderIsFinished(ptr noundef readonly captures(none) %0) local_unnamed_addr #11 {
  %2 = load i32, ptr %0, align 8, !tbaa !3
  %3 = icmp eq i32 %2, 26
  br i1 %3, label %4, label %BrotliDecoderHasMoreOutput.exit

4:                                                ; preds = %1
  %5 = getelementptr inbounds nuw i8, ptr %0, i64 128
  %6 = load i32, ptr %5, align 8, !tbaa !38
  %7 = icmp slt i32 %6, 0
  br i1 %7, label %BrotliDecoderHasMoreOutput.exit, label %8

8:                                                ; preds = %4
  %9 = getelementptr inbounds nuw i8, ptr %0, i64 136
  %10 = load ptr, ptr %9, align 8, !tbaa !43
  %.not.i = icmp eq ptr %10, null
  br i1 %.not.i, label %BrotliDecoderHasMoreOutput.exit, label %11

11:                                               ; preds = %8
  %.phi.trans.insert.i.i = getelementptr inbounds nuw i8, ptr %0, i64 88
  %.pre.i.i = load i32, ptr %.phi.trans.insert.i.i, align 8, !tbaa !105
  %.phi.trans.insert9.phi.trans.insert.i.i = getelementptr inbounds nuw i8, ptr %0, i64 100
  %.pre10.pre.i.i = load i32, ptr %.phi.trans.insert9.phi.trans.insert.i.i, align 4, !tbaa !103
  %12 = sext i32 %.pre.i.i to i64
  %13 = getelementptr inbounds nuw i8, ptr %0, i64 424
  %14 = load i64, ptr %13, align 8, !tbaa !112
  %15 = sext i32 %.pre10.pre.i.i to i64
  %16 = getelementptr inbounds nuw i8, ptr %0, i64 432
  %17 = load i64, ptr %16, align 8, !tbaa !37
  %18 = sub i64 %12, %17
  %19 = mul i64 %14, %15
  %20 = sub i64 0, %19
  %21 = icmp eq i64 %18, %20
  %22 = zext i1 %21 to i32
  br label %BrotliDecoderHasMoreOutput.exit

BrotliDecoderHasMoreOutput.exit:                  ; preds = %11, %8, %4, %1
  %23 = phi i32 [ 0, %1 ], [ 1, %4 ], [ 1, %8 ], [ %22, %11 ]
  ret i32 %23
}